target datalayout = "e-m:e-p270:32:32-p271:32:32-p272:64:64-i64:64-i128:128-f80:128-n8:16:32:64-S128"
target triple = "x86_64-unknown-linux-gnu"

%struct.redisObject = type { i32, i32, ptr }

@.str.1 = private unnamed_addr constant [2 x i8] c"m\00", align 1
@.str.2 = private unnamed_addr constant [3 x i8] c"km\00", align 1
@.str.3 = private unnamed_addr constant [3 x i8] c"ft\00", align 1
@.str.4 = private unnamed_addr constant [3 x i8] c"mi\00", align 1
@.str.5 = private unnamed_addr constant [52 x i8] c"unsupported unit provided. please use M, KM, FT, MI\00", align 1
@.str.6 = private unnamed_addr constant [20 x i8] c"need numeric radius\00", align 1
@.str.7 = private unnamed_addr constant [26 x i8] c"radius cannot be negative\00", align 1

; Function Attrs: nounwind uwtable
define dso_local double @extractUnitOrReply(ptr noundef %c, ptr noundef %unit) #0 {
entry:
  %retval = alloca double, align 8
  %c.addr = alloca ptr, align 8
  %unit.addr = alloca ptr, align 8
  %u = alloca ptr, align 8
  store ptr %c, ptr %c.addr, align 8
  store ptr %unit, ptr %unit.addr, align 8
  %0 = load ptr, ptr %unit.addr, align 8
  %ptr = getelementptr inbounds %struct.redisObject, ptr %0, i32 0, i32 2
  %1 = load ptr, ptr %ptr, align 8
  store ptr %1, ptr %u, align 8
  %2 = load ptr, ptr %u, align 8
  %call = call i32 @strcasecmp(ptr noundef %2, ptr noundef @.str.1) #11
  %tobool = icmp ne i32 %call, 0
  br i1 %tobool, label %if.else, label %if.then

if.then:                                          ; preds = %entry
  store double 1.000000e+00, ptr %retval, align 8
  br label %return

if.else:                                          ; preds = %entry
  %3 = load ptr, ptr %u, align 8
  %call1 = call i32 @strcasecmp(ptr noundef %3, ptr noundef @.str.2) #11
  %tobool2 = icmp ne i32 %call1, 0
  br i1 %tobool2, label %if.else4, label %if.then3

if.then3:                                         ; preds = %if.else
  store double 1.000000e+03, ptr %retval, align 8
  br label %return

if.else4:                                         ; preds = %if.else
  %4 = load ptr, ptr %u, align 8
  %call5 = call i32 @strcasecmp(ptr noundef %4, ptr noundef @.str.3) #11
  %tobool6 = icmp ne i32 %call5, 0
  br i1 %tobool6, label %if.else8, label %if.then7

if.then7:                                         ; preds = %if.else4
  store double 3.048000e-01, ptr %retval, align 8
  br label %return

if.else8:                                         ; preds = %if.else4
  %5 = load ptr, ptr %u, align 8
  %call9 = call i32 @strcasecmp(ptr noundef %5, ptr noundef @.str.4) #11
  %tobool10 = icmp ne i32 %call9, 0
  br i1 %tobool10, label %if.else12, label %if.then11

if.then11:                                        ; preds = %if.else8
  store double 1.609340e+03, ptr %retval, align 8
  br label %return

if.else12:                                        ; preds = %if.else8
  %6 = load ptr, ptr %c.addr, align 8
  call void @addReplyError(ptr noundef %6, ptr noundef @.str.5)
  store double -1.000000e+00, ptr %retval, align 8
  br label %return

return:                                           ; preds = %if.else12, %if.then11, %if.then7, %if.then3, %if.then
  %7 = load double, ptr %retval, align 8
  ret double %7
}

; Function Attrs: nounwind uwtable
define dso_local i32 @extractDistanceOrReply(ptr noundef %c, ptr noundef %argv, ptr noundef %conversion, ptr noundef %radius) #0 {
entry:
  %retval = alloca i32, align 4
  %c.addr = alloca ptr, align 8
  %argv.addr = alloca ptr, align 8
  %conversion.addr = alloca ptr, align 8
  %radius.addr = alloca ptr, align 8
  %distance = alloca double, align 8
  %to_meters = alloca double, align 8
  store ptr %c, ptr %c.addr, align 8
  store ptr %argv, ptr %argv.addr, align 8
  store ptr %conversion, ptr %conversion.addr, align 8
  store ptr %radius, ptr %radius.addr, align 8
  %0 = load ptr, ptr %c.addr, align 8
  %1 = load ptr, ptr %argv.addr, align 8
  %arrayidx = getelementptr inbounds ptr, ptr %1, i64 0
  %2 = load ptr, ptr %arrayidx, align 8
  %call = call i32 @getDoubleFromObjectOrReply(ptr noundef %0, ptr noundef %2, ptr noundef %distance, ptr noundef @.str.6)
  %cmp = icmp ne i32 %call, 0
  br i1 %cmp, label %if.then, label %if.end

if.then:                                          ; preds = %entry
  store i32 -1, ptr %retval, align 4
  br label %return

if.end:                                           ; preds = %entry
  %3 = load double, ptr %distance, align 8
  %cmp1 = fcmp olt double %3, 0.000000e+00
  br i1 %cmp1, label %if.then2, label %if.end3

if.then2:                                         ; preds = %if.end
  %4 = load ptr, ptr %c.addr, align 8
  call void @addReplyError(ptr noundef %4, ptr noundef @.str.7)
  store i32 -1, ptr %retval, align 4
  br label %return

if.end3:                                          ; preds = %if.end
  %5 = load ptr, ptr %radius.addr, align 8
  %tobool = icmp ne ptr %5, null
  br i1 %tobool, label %if.then4, label %if.end5

if.then4:                                         ; preds = %if.end3
  %6 = load double, ptr %distance, align 8
  %7 = load ptr, ptr %radius.addr, align 8
  store double %6, ptr %7, align 8
  br label %if.end5

if.end5:                                          ; preds = %if.then4, %if.end3
  %8 = load ptr, ptr %c.addr, align 8
  %9 = load ptr, ptr %argv.addr, align 8
  %arrayidx6 = getelementptr inbounds ptr, ptr %9, i64 1
  %10 = load ptr, ptr %arrayidx6, align 8
  %call7 = call double @extractUnitOrReply(ptr noundef %8, ptr noundef %10)
  store double %call7, ptr %to_meters, align 8
  %11 = load double, ptr %to_meters, align 8
  %cmp8 = fcmp olt double %11, 0.000000e+00
  br i1 %cmp8, label %if.then9, label %if.end10

if.then9:                                         ; preds = %if.end5
  store i32 -1, ptr %retval, align 4
  br label %return

if.end10:                                         ; preds = %if.end5
  %12 = load ptr, ptr %conversion.addr, align 8
  %tobool11 = icmp ne ptr %12, null
  br i1 %tobool11, label %if.then12, label %if.end13

if.then12:                                        ; preds = %if.end10
  %13 = load double, ptr %to_meters, align 8
  %14 = load ptr, ptr %conversion.addr, align 8
  store double %13, ptr %14, align 8
  br label %if.end13

if.end13:                                         ; preds = %if.then12, %if.end10
  store i32 0, ptr %retval, align 4
  br label %return

return:                                           ; preds = %if.end13, %if.then9, %if.then2, %if.then
  %15 = load i32, ptr %retval, align 4
  ret i32 %15
}