; Function Attrs: nounwind uwtable
define dso_local noundef i32 @extractDistanceOrReply(ptr noundef %c, ptr nocapture noundef readonly %argv, ptr noundef writeonly %conversion, ptr noundef writeonly %radius) local_unnamed_addr #0 {
entry:
  %distance = alloca double, align 8
  %0 = load ptr, ptr %argv, align 8
  %call = call i32 @getDoubleFromObjectOrReply(ptr noundef %c, ptr noundef %0, ptr noundef nonnull %distance, ptr noundef nonnull @.str.6) #14
  %cmp.not = icmp eq i32 %call, 0
  br i1 %cmp.not, label %if.end, label %return

if.end:                                           ; preds = %entry
  %1 = load double, ptr %distance, align 8
  %cmp1 = fcmp olt double %1, 0.000000e+00
  br i1 %cmp1, label %if.then2, label %if.end3

if.then2:                                         ; preds = %if.end
  call void @addReplyError(ptr noundef %c, ptr noundef nonnull @.str.7) #14
  br label %return

if.end3:                                          ; preds = %if.end
  %tobool.not = icmp eq ptr %radius, null
  br i1 %tobool.not, label %if.end5, label %if.then4

if.then4:                                         ; preds = %if.end3
  store double %1, ptr %radius, align 8
  br label %if.end5

if.end5:                                          ; preds = %if.then4, %if.end3
  %arrayidx6 = getelementptr inbounds i8, ptr %argv, i64 8
  %2 = load ptr, ptr %arrayidx6, align 8
  %ptr.i = getelementptr inbounds i8, ptr %2, i64 8
  %3 = load ptr, ptr %ptr.i, align 8
  %call.i = call i32 @strcasecmp(ptr noundef %3, ptr noundef nonnull @.str.1) #15
  %tobool.not.i = icmp eq i32 %call.i, 0
  br i1 %tobool.not.i, label %if.end10, label %if.else.i

if.else.i:                                        ; preds = %if.end5
  %call1.i = call i32 @strcasecmp(ptr noundef %3, ptr noundef nonnull @.str.2) #15
  %tobool2.not.i = icmp eq i32 %call1.i, 0
  br i1 %tobool2.not.i, label %if.end10, label %if.else4.i

if.else4.i:                                       ; preds = %if.else.i
  %call5.i = call i32 @strcasecmp(ptr noundef %3, ptr noundef nonnull @.str.3) #15
  %tobool6.not.i = icmp eq i32 %call5.i, 0
  br i1 %tobool6.not.i, label %if.end10, label %if.else8.i

if.else8.i:                                       ; preds = %if.else4.i
  %call9.i = call i32 @strcasecmp(ptr noundef %3, ptr noundef nonnull @.str.4) #15
  %tobool10.not.i = icmp eq i32 %call9.i, 0
  br i1 %tobool10.not.i, label %if.end10, label %extractUnitOrReply.exit

extractUnitOrReply.exit:                          ; preds = %if.else8.i
  call void @addReplyError(ptr noundef %c, ptr noundef nonnull @.str.5) #14
  br label %return

if.end10:                                         ; preds = %if.end5, %if.else.i, %if.else4.i, %if.else8.i
  %retval.0.i.ph = phi double [ 1.609340e+03, %if.else8.i ], [ 3.048000e-01, %if.else4.i ], [ 1.000000e+03, %if.else.i ], [ 1.000000e+00, %if.end5 ]
  %tobool11.not = icmp eq ptr %conversion, null
  br i1 %tobool11.not, label %return, label %if.then12

if.then12:                                        ; preds = %if.end10
  store double %retval.0.i.ph, ptr %conversion, align 8
  br label %return

return:                                           ; preds = %extractUnitOrReply.exit, %if.end10, %if.then12, %entry, %if.then2
  %retval.0 = phi i32 [ -1, %if.then2 ], [ -1, %entry ], [ -1, %extractUnitOrReply.exit ], [ 0, %if.then12 ], [ 0, %if.end10 ]
  ret i32 %retval.0
}